target datalayout = "e-m:e-p270:32:32-p271:32:32-p272:64:64-i64:64-i128:128-f80:128-n8:16:32:64-S128"
target triple = "x86_64-pc-linux-gnu"

%struct._zend_refcounted = type { %struct._zend_refcounted_h }
%struct._zend_refcounted_h = type { i32, %union.anon }
%union.anon = type { i32 }
%struct._zval_struct = type { %union._zend_value, %union.anon.0, %union.anon.3 }
%union._zend_value = type { i64 }
%union.anon.0 = type { i32 }
%union.anon.3 = type { i32 }
%struct.anon.1 = type { i8, i8, %union.anon.2 }
%union.anon.2 = type { i16 }
%struct._zend_reference = type { %struct._zend_refcounted_h, %struct._zval_struct, %union.zend_property_info_source_list }
%union.zend_property_info_source_list = type { ptr }

; Function Attrs: nounwind uwtable
define void @rc_dtor_func(ptr noundef %0) #0 {
  %2 = alloca i32, align 4
  %3 = alloca ptr, align 8
  store ptr %0, ptr %3, align 8
  %4 = load ptr, ptr %3, align 8
  %5 = getelementptr inbounds %struct._zend_refcounted, ptr %4, i32 0, i32 0
  %6 = getelementptr inbounds %struct._zend_refcounted_h, ptr %5, i32 0, i32 1
  %7 = load i32, ptr %6, align 4
  store i32 %7, ptr %2, align 4
  %8 = load i32, ptr %2, align 4
  %9 = and i32 %8, 15
  %10 = trunc i32 %9 to i8
  %11 = zext i8 %10 to i64
  %12 = getelementptr inbounds [12 x ptr], ptr @zend_rc_dtor_func, i64 0, i64 %11
  %13 = load ptr, ptr %12, align 8
  %14 = load ptr, ptr %3, align 8
  call void %13(ptr noundef %14)
  ret void
}

; Function Attrs: nounwind uwtable
define internal void @zend_reference_destroy(ptr noundef %0) #0 {
  %2 = alloca ptr, align 8
  %3 = alloca ptr, align 8
  %4 = alloca ptr, align 8
  %5 = alloca ptr, align 8
  %6 = alloca ptr, align 8
  %7 = alloca ptr, align 8
  store ptr %0, ptr %7, align 8
  %8 = load ptr, ptr %7, align 8
  %9 = getelementptr inbounds %struct._zend_reference, ptr %8, i32 0, i32 2
  %10 = load ptr, ptr %9, align 8
  %11 = icmp ne ptr %10, null
  %12 = xor i1 %11, true
  call void @llvm.assume(i1 %12)
  %13 = load ptr, ptr %7, align 8
  %14 = getelementptr inbounds %struct._zend_reference, ptr %13, i32 0, i32 1
  store ptr %14, ptr %5, align 8
  %15 = load ptr, ptr %5, align 8
  %16 = getelementptr inbounds %struct._zval_struct, ptr %15, i32 0, i32 1
  %17 = getelementptr inbounds %struct.anon.1, ptr %16, i32 0, i32 1
  %18 = load i8, ptr %17, align 1
  %19 = zext i8 %18 to i32
  %20 = icmp ne i32 %19, 0
  br i1 %20, label %21, label %64

21:                                               ; preds = %1
  %22 = load ptr, ptr %5, align 8
  %23 = load ptr, ptr %22, align 8
  store ptr %23, ptr %6, align 8
  %24 = load ptr, ptr %6, align 8
  store ptr %24, ptr %4, align 8
  %25 = load ptr, ptr %4, align 8
  %26 = load i32, ptr %25, align 4
  %27 = icmp ugt i32 %26, 0
  call void @llvm.assume(i1 %27)
  %28 = load ptr, ptr %4, align 8
  %29 = load i32, ptr %28, align 4
  %30 = add i32 %29, -1
  store i32 %30, ptr %28, align 4
  %31 = icmp ne i32 %30, 0
  br i1 %31, label %34, label %32

32:                                               ; preds = %21
  %33 = load ptr, ptr %6, align 8
  call void @rc_dtor_func(ptr noundef %33)
  br label %63

34:                                               ; preds = %21
  %35 = load ptr, ptr %6, align 8
  store ptr %35, ptr %2, align 8
  %36 = load ptr, ptr %2, align 8
  %37 = getelementptr inbounds %struct._zend_refcounted_h, ptr %36, i32 0, i32 1
  %38 = load i32, ptr %37, align 4
  %39 = icmp eq i32 %38, 26
  br i1 %39, label %40, label %54

40:                                               ; preds = %34
  %41 = load ptr, ptr %2, align 8
  %42 = getelementptr inbounds %struct._zend_reference, ptr %41, i32 0, i32 1
  store ptr %42, ptr %3, align 8
  %43 = load ptr, ptr %3, align 8
  %44 = getelementptr inbounds %struct._zval_struct, ptr %43, i32 0, i32 1
  %45 = getelementptr inbounds %struct.anon.1, ptr %44, i32 0, i32 1
  %46 = load i8, ptr %45, align 1
  %47 = zext i8 %46 to i32
  %48 = and i32 %47, 2
  %49 = icmp ne i32 %48, 0
  br i1 %49, label %51, label %50

50:                                               ; preds = %40
  br label %62

51:                                               ; preds = %40
  %52 = load ptr, ptr %3, align 8
  %53 = load ptr, ptr %52, align 8
  store ptr %53, ptr %2, align 8
  br label %54

54:                                               ; preds = %51, %34
  %55 = load ptr, ptr %2, align 8
  %56 = getelementptr inbounds %struct._zend_refcounted_h, ptr %55, i32 0, i32 1
  %57 = load i32, ptr %56, align 4
  %58 = and i32 %57, -1008
  %59 = icmp eq i32 %58, 0
  br i1 %59, label %60, label %62

60:                                               ; preds = %54
  %61 = load ptr, ptr %2, align 8
  call void @gc_possible_root(ptr noundef %61) #8
  br label %62

62:                                               ; preds = %60, %54, %50
  br label %63

63:                                               ; preds = %62, %32
  br label %64

64:                                               ; preds = %63, %1
  br label %65

65:                                               ; preds = %64
  %66 = load ptr, ptr %7, align 8
  call void @_efree_32(ptr noundef %66)
  br label %67

67:                                               ; preds = %65
  ret void
}