; Function Attrs: nounwind uwtable
define internal void @zend_reference_destroy(ptr noundef %0) #0 {
  %2 = getelementptr inbounds i8, ptr %0, i64 24
  %3 = load ptr, ptr %2, align 8
  %.not = icmp eq ptr %3, null
  tail call void @llvm.assume(i1 %.not)
  %4 = getelementptr inbounds i8, ptr %0, i64 17
  %5 = load i8, ptr %4, align 1
  %.not16 = icmp eq i8 %5, 0
  br i1 %.not16, label %33, label %6

6:                                                ; preds = %1
  %7 = getelementptr inbounds i8, ptr %0, i64 8
  %8 = load ptr, ptr %7, align 8
  %9 = load i32, ptr %8, align 4
  %10 = icmp ne i32 %9, 0
  tail call void @llvm.assume(i1 %10)
  %11 = add i32 %9, -1
  store i32 %11, ptr %8, align 4
  %.not17 = icmp eq i32 %11, 0
  %12 = getelementptr inbounds i8, ptr %8, i64 4
  %13 = load i32, ptr %12, align 4
  br i1 %.not17, label %14, label %19

14:                                               ; preds = %6
  %15 = and i32 %13, 15
  %16 = zext nneg i32 %15 to i64
  %17 = getelementptr inbounds [12 x ptr], ptr @zend_rc_dtor_func, i64 0, i64 %16
  %18 = load ptr, ptr %17, align 8
  tail call void %18(ptr noundef nonnull %8) #9
  br label %33

19:                                               ; preds = %6
  %20 = icmp eq i32 %13, 26
  br i1 %20, label %21, label %28

21:                                               ; preds = %19
  %22 = getelementptr inbounds i8, ptr %8, i64 17
  %23 = load i8, ptr %22, align 1
  %24 = and i8 %23, 2
  %.not18 = icmp eq i8 %24, 0
  br i1 %.not18, label %33, label %25

25:                                               ; preds = %21
  %26 = getelementptr inbounds i8, ptr %8, i64 8
  %27 = load ptr, ptr %26, align 8
  %.phi.trans.insert = getelementptr inbounds i8, ptr %27, i64 4
  %.pre = load i32, ptr %.phi.trans.insert, align 4
  br label %28

28:                                               ; preds = %25, %19
  %29 = phi i32 [ %.pre, %25 ], [ %13, %19 ]
  %.0 = phi ptr [ %27, %25 ], [ %8, %19 ]
  %30 = and i32 %29, -1008
  %31 = icmp eq i32 %30, 0
  br i1 %31, label %32, label %33

32:                                               ; preds = %28
  tail call void @gc_possible_root(ptr noundef nonnull %.0) #9
  br label %33

33:                                               ; preds = %1, %28, %32, %21, %14
  tail call void @_efree_32(ptr noundef nonnull %0) #9
  ret void
}